; Function Attrs: mustprogress nofree norecurse nosync nounwind willreturn memory(read, inaccessiblemem: none) uwtable
define hidden noundef zeroext i1 @_ZNK10macro_util8is_le_geEP4expr(ptr noundef nonnull readonly align 8 captures(none) dereferenceable(320) %0, ptr noundef readonly captures(none) %1) local_unnamed_addr #7 align 2 {
  %3 = getelementptr inbounds nuw i8, ptr %1, i64 4
  %4 = load i32, ptr %3, align 4
  %5 = and i32 %4, 65535
  %6 = icmp eq i32 %5, 0
  br i1 %6, label %7, label %_ZNK14bv_recognizers9is_bv_sleEPK4expr.exit

7:                                                ; preds = %2
  %8 = getelementptr inbounds nuw i8, ptr %1, i64 16
  %9 = load ptr, ptr %8, align 8, !tbaa !50
  %10 = getelementptr inbounds nuw i8, ptr %9, i64 24
  %11 = load ptr, ptr %10, align 8, !tbaa !55
  %.not.i.i.i.i = icmp eq ptr %11, null
  br i1 %.not.i.i.i.i, label %_ZNK14bv_recognizers9is_bv_sleEPK4expr.exit, label %_ZNK17arith_recognizers5is_geEPK4expr.exit

_ZNK17arith_recognizers5is_geEPK4expr.exit:       ; preds = %7
  %12 = load i32, ptr %11, align 8, !tbaa !60
  %13 = icmp eq i32 %12, 5
  %14 = getelementptr inbounds nuw i8, ptr %11, i64 4
  %15 = load i32, ptr %14, align 4
  %16 = icmp eq i32 %15, 3
  %17 = select i1 %13, i1 %16, i1 false
  br i1 %17, label %_ZNK14bv_recognizers9is_bv_sleEPK4expr.exit, label %_ZNK17arith_recognizers5is_leEPK4expr.exit

_ZNK17arith_recognizers5is_leEPK4expr.exit:       ; preds = %_ZNK17arith_recognizers5is_geEPK4expr.exit
  %18 = load i32, ptr %11, align 8, !tbaa !60
  %19 = icmp eq i32 %18, 5
  %20 = getelementptr inbounds nuw i8, ptr %11, i64 4
  %21 = load i32, ptr %20, align 4
  %22 = icmp eq i32 %21, 2
  %23 = select i1 %19, i1 %22, i1 false
  br i1 %23, label %_ZNK14bv_recognizers9is_bv_sleEPK4expr.exit, label %_ZNK14bv_recognizers9is_bv_uleEPK4expr.exit

_ZNK14bv_recognizers9is_bv_uleEPK4expr.exit:      ; preds = %_ZNK17arith_recognizers5is_leEPK4expr.exit
  %.in = getelementptr inbounds nuw i8, ptr %0, i64 8
  %24 = load i32, ptr %.in, align 8, !tbaa !64
  %25 = load i32, ptr %11, align 8, !tbaa !60
  %26 = icmp eq i32 %25, %24
  %27 = getelementptr inbounds nuw i8, ptr %11, i64 4
  %28 = load i32, ptr %27, align 4
  %29 = icmp eq i32 %28, 22
  %30 = select i1 %26, i1 %29, i1 false
  br i1 %30, label %_ZNK14bv_recognizers9is_bv_sleEPK4expr.exit, label %.thread12

.thread12:                                        ; preds = %_ZNK14bv_recognizers9is_bv_uleEPK4expr.exit
  %31 = load i32, ptr %11, align 8, !tbaa !60
  %32 = icmp eq i32 %31, %24
  %33 = getelementptr inbounds nuw i8, ptr %11, i64 4
  %34 = load i32, ptr %33, align 4
  %35 = icmp eq i32 %34, 23
  %36 = select i1 %32, i1 %35, i1 false
  br label %_ZNK14bv_recognizers9is_bv_sleEPK4expr.exit

_ZNK14bv_recognizers9is_bv_sleEPK4expr.exit:      ; preds = %7, %2, %.thread12, %_ZNK14bv_recognizers9is_bv_uleEPK4expr.exit, %_ZNK17arith_recognizers5is_leEPK4expr.exit, %_ZNK17arith_recognizers5is_geEPK4expr.exit
  %37 = phi i1 [ true, %_ZNK14bv_recognizers9is_bv_uleEPK4expr.exit ], [ true, %_ZNK17arith_recognizers5is_leEPK4expr.exit ], [ true, %_ZNK17arith_recognizers5is_geEPK4expr.exit ], [ %36, %.thread12 ], [ false, %2 ], [ false, %7 ]
  ret i1 %37
}